   1              		.cpu arm7tdmi
   2              		.fpu softvfp
   3              		.eabi_attribute 20, 1
   4              		.eabi_attribute 21, 1
   5              		.eabi_attribute 23, 3
   6              		.eabi_attribute 24, 1
   7              		.eabi_attribute 25, 1
   8              		.eabi_attribute 26, 1
   9              		.eabi_attribute 30, 6
  10              		.eabi_attribute 18, 4
  11              		.file	"button.c"
  21              	.Ltext0:
  22              		.file 1 "../button.c"
 1921              		.align	2
 1922              		.global	esta_pulsado
 1924              	esta_pulsado:
 1925              	.LFB0:
   1:../button.c   **** /*--- ficheros de cabecera ---*/
   2:../button.c   **** #include "44b.h"
   3:../button.c   **** #include "def.h"
   4:../button.c   **** #include "uart.h"
   5:../button.c   **** /*--- variables globales ---*/
   6:../button.c   **** /*--- funciones externas ---*/
   7:../button.c   **** //extern void D8Led_Symbol(int value);
   8:../button.c   **** /*--- declaracion de funciones ---*/
   9:../button.c   **** void Eint4567_ISR(void) __attribute__ ((interrupt ("IRQ")));
  10:../button.c   **** void Eint4567_init(void);
  11:../button.c   **** extern void leds_switch ();
  12:../button.c   **** /*--- codigo de funciones ---*/
  13:../button.c   **** 
  14:../button.c   **** int esta_pulsado(void)
  15:../button.c   **** {
 1926              		.loc 1 15 0
 1927              		.cfi_startproc
 1928              		@ Function supports interworking.
 1929              		@ args = 0, pretend = 0, frame = 8
 1930              		@ frame_needed = 1, uses_anonymous_args = 0
 1931 0000 0DC0A0E1 		mov	ip, sp
 1932              	.LCFI0:
 1933              		.cfi_def_cfa_register 12
 1934 0004 00D82DE9 		stmfd	sp!, {fp, ip, lr, pc}
 1935 0008 04B04CE2 		sub	fp, ip, #4
 1936              		.cfi_offset 14, -8
 1937              		.cfi_offset 13, -12
 1938              		.cfi_offset 11, -16
 1939              	.LCFI1:
 1940              		.cfi_def_cfa 11, 4
 1941 000c 08D04DE2 		sub	sp, sp, #8
  16:../button.c   **** 	int aux = rPDATG & (0x3<<6);
 1942              		.loc 1 16 0
 1943 0010 30309FE5 		ldr	r3, .L4
 1944 0014 003093E5 		ldr	r3, [r3, #0]
 1945 0018 C03003E2 		and	r3, r3, #192
 1946 001c 10300BE5 		str	r3, [fp, #-16]
  17:../button.c   **** 	if (aux != 0xC0)
 1947              		.loc 1 17 0
 1948 0020 10301BE5 		ldr	r3, [fp, #-16]
 1949 0024 C00053E3 		cmp	r3, #192
 1950 0028 0100000A 		beq	.L2
  18:../button.c   **** 		return 1;
 1951              		.loc 1 18 0
 1952 002c 0130A0E3 		mov	r3, #1
 1953 0030 000000EA 		b	.L3
 1954              	.L2:
  19:../button.c   **** 	else return 0;
 1955              		.loc 1 19 0
 1956 0034 0030A0E3 		mov	r3, #0
 1957              	.L3:
  20:../button.c   **** }
 1958              		.loc 1 20 0
 1959 0038 0300A0E1 		mov	r0, r3
 1960 003c 0CD04BE2 		sub	sp, fp, #12
 1961 0040 00689DE8 		ldmfd	sp, {fp, sp, lr}
 1962 0044 1EFF2FE1 		bx	lr
 1963              	.L5:
 1964              		.align	2
 1965              	.L4:
 1966 0048 4400D201 		.word	30539844
 1967              		.cfi_endproc
 1968              	.LFE0:
 1970              		.align	2
 1971              		.global	Eint4567_init
 1973              	Eint4567_init:
 1974              	.LFB1:
  21:../button.c   **** 
  22:../button.c   **** void Eint4567_init(void)
  23:../button.c   **** {
 1975              		.loc 1 23 0
 1976              		.cfi_startproc
 1977              		@ Function supports interworking.
 1978              		@ args = 0, pretend = 0, frame = 0
 1979              		@ frame_needed = 1, uses_anonymous_args = 0
 1980 004c 0DC0A0E1 		mov	ip, sp
 1981              	.LCFI2:
 1982              		.cfi_def_cfa_register 12
 1983 0050 00D82DE9 		stmfd	sp!, {fp, ip, lr, pc}
 1984 0054 04B04CE2 		sub	fp, ip, #4
 1985              		.cfi_offset 14, -8
 1986              		.cfi_offset 13, -12
 1987              		.cfi_offset 11, -16
 1988              	.LCFI3:
 1989              		.cfi_def_cfa 11, 4
  24:../button.c   **** /* Configuracion del controlador de interrupciones */
  25:../button.c   **** 	// Borra EXTINTPND escribiendo 1s en el propio registro
  26:../button.c   **** 	rEXTINTPND = 0xf;
 1990              		.loc 1 26 0
 1991 0058 98309FE5 		ldr	r3, .L7
 1992 005c 0F20A0E3 		mov	r2, #15
 1993 0060 002083E5 		str	r2, [r3, #0]
  27:../button.c   **** 	// Borra INTPND escribiendo 1s en I_ISPC
  28:../button.c   **** 	rI_ISPC = 0x3ffffff;
 1994              		.loc 1 28 0
 1995 0064 90309FE5 		ldr	r3, .L7+4
 1996 0068 3F23E0E3 		mvn	r2, #-67108864
 1997 006c 002083E5 		str	r2, [r3, #0]
  29:../button.c   **** 	// Configura las lineas como de tipo IRQ mediante INTMOD
  30:../button.c   **** 	rINTMOD = 0x0; 
 1998              		.loc 1 30 0
 1999 0070 88309FE5 		ldr	r3, .L7+8
 2000 0074 0020A0E3 		mov	r2, #0
 2001 0078 002083E5 		str	r2, [r3, #0]
  31:../button.c   **** 	// Habilita int. vectorizadas y la linea IRQ (FIQ no) mediante INTCON
  32:../button.c   **** 	rINTCON = 0x1;
 2002              		.loc 1 32 0
 2003 007c 1E36A0E3 		mov	r3, #31457280
 2004 0080 0120A0E3 		mov	r2, #1
 2005 0084 002083E5 		str	r2, [r3, #0]
  33:../button.c   **** 	// Enmascara todas las lineas excepto Eint4567 y el bit global (INTMSK)
  34:../button.c   **** 	rINTMSK &= ~(BIT_EINT4567 | BIT_GLOBAL);
 2006              		.loc 1 34 0
 2007 0088 74309FE5 		ldr	r3, .L7+12
 2008 008c 70209FE5 		ldr	r2, .L7+12
 2009 0090 002092E5 		ldr	r2, [r2, #0]
 2010 0094 4226C2E3 		bic	r2, r2, #69206016
 2011 0098 002083E5 		str	r2, [r3, #0]
  35:../button.c   **** 	// Establecer la rutina de servicio para Eint4567
  36:../button.c   **** 	pISR_EINT4567 = (unsigned)Eint4567_ISR;
 2012              		.loc 1 36 0
 2013 009c 64309FE5 		ldr	r3, .L7+16
 2014 00a0 64209FE5 		ldr	r2, .L7+20
 2015 00a4 002083E5 		str	r2, [r3, #0]
  37:../button.c   **** /* Configuracion del puerto G */
  38:../button.c   **** 	// Establece la funcion de los pines (EINT7-EINT0)
  39:../button.c   **** 	rPCONG = rPCONG | 0xf000;
 2016              		.loc 1 39 0
 2017 00a8 60309FE5 		ldr	r3, .L7+24
 2018 00ac 5C209FE5 		ldr	r2, .L7+24
 2019 00b0 002092E5 		ldr	r2, [r2, #0]
 2020 00b4 0F2A82E3 		orr	r2, r2, #61440
 2021 00b8 002083E5 		str	r2, [r3, #0]
  40:../button.c   **** 
  41:../button.c   **** 	//Habilita las resistencias de pull-up
  42:../button.c   **** 	rPUPG = 0x0;
 2022              		.loc 1 42 0
 2023 00bc 50309FE5 		ldr	r3, .L7+28
 2024 00c0 0020A0E3 		mov	r2, #0
 2025 00c4 002083E5 		str	r2, [r3, #0]
  43:../button.c   **** 	// Configura las lineas de int. como de flanco de bajada mediante EXTINT
  44:../button.c   **** 	rEXTINT = 0x22222222;
 2026              		.loc 1 44 0
 2027 00c8 48309FE5 		ldr	r3, .L7+32
 2028 00cc 48209FE5 		ldr	r2, .L7+36
 2029 00d0 002083E5 		str	r2, [r3, #0]
  45:../button.c   **** 	/* Por precaucion, se vuelven a borrar los bits de INTPND y EXTINTPND */
  46:../button.c   **** 	rEXTINTPND = 0xf;
 2030              		.loc 1 46 0
 2031 00d4 1C309FE5 		ldr	r3, .L7
 2032 00d8 0F20A0E3 		mov	r2, #15
 2033 00dc 002083E5 		str	r2, [r3, #0]
  47:../button.c   **** 	rI_ISPC = 0x3ffffff;
 2034              		.loc 1 47 0
 2035 00e0 14309FE5 		ldr	r3, .L7+4
 2036 00e4 3F23E0E3 		mvn	r2, #-67108864
 2037 00e8 002083E5 		str	r2, [r3, #0]
  48:../button.c   **** }
 2038              		.loc 1 48 0
 2039 00ec 0CD04BE2 		sub	sp, fp, #12
 2040 00f0 00689DE8 		ldmfd	sp, {fp, sp, lr}
 2041 00f4 1EFF2FE1 		bx	lr
 2042              	.L8:
 2043              		.align	2
 2044              	.L7:
 2045 00f8 5400D201 		.word	30539860
 2046 00fc 2400E001 		.word	31457316
 2047 0100 0800E001 		.word	31457288
 2048 0104 0C00E001 		.word	31457292
 2049 0108 74FF7F0C 		.word	209715060
 2050 010c 00000000 		.word	Eint4567_ISR
 2051 0110 4000D201 		.word	30539840
 2052 0114 4800D201 		.word	30539848
 2053 0118 5000D201 		.word	30539856
 2054 011c 22222222 		.word	572662306
 2055              		.cfi_endproc
 2056              	.LFE1:
 2058              		.align	2
 2059              		.global	Eint4567_ISR
 2061              	Eint4567_ISR:
 2062              	.LFB2:
  49:../button.c   **** 
  50:../button.c   **** void Eint4567_ISR(void)
  51:../button.c   **** {
 2063              		.loc 1 51 0
 2064              		.cfi_startproc
 2065              		@ Interrupt Service Routine.
 2066              		@ args = 0, pretend = 0, frame = 0
 2067              		@ frame_needed = 1, uses_anonymous_args = 0
 2068 0120 04C02DE5 		str	ip, [sp, #-4]!
 2069 0124 0DC0A0E1 		mov	ip, sp
 2070              	.LCFI4:
 2071              		.cfi_def_cfa_register 12
 2072 0128 0FD82DE9 		stmfd	sp!, {r0, r1, r2, r3, fp, ip, lr, pc}
 2073 012c 04B04CE2 		sub	fp, ip, #4
 2074              		.cfi_offset 14, -8
 2075              		.cfi_offset 13, -12
 2076              		.cfi_offset 11, -16
 2077              		.cfi_offset 3, -20
 2078              		.cfi_offset 2, -24
 2079              		.cfi_offset 1, -28
 2080              		.cfi_offset 0, -32
 2081              	.LCFI5:
 2082              		.cfi_def_cfa 11, 4
  52:../button.c   **** 	//Detectamos que boton se ha pulsado
  53:../button.c   **** 	if ((rPDATG & (0x1<<6)) == 0) {
 2083              		.loc 1 53 0
 2084 0130 64309FE5 		ldr	r3, .L13
 2085 0134 003093E5 		ldr	r3, [r3, #0]
 2086 0138 403003E2 		and	r3, r3, #64
 2087 013c 000053E3 		cmp	r3, #0
 2088 0140 0200001A 		bne	.L10
  54:../button.c   **** 	    Uart_SendByte1('L'); // enviar caracter
 2089              		.loc 1 54 0
 2090 0144 4C00A0E3 		mov	r0, #76
 2091 0148 FEFFFFEB 		bl	Uart_SendByte1
  55:../button.c   **** 	}
  56:../button.c   **** 	else {
  57:../button.c   **** 	    Uart_SendByte1('R'); // enviar caracter
  58:../button.c   **** 	}
  59:../button.c   **** 	while (esta_pulsado());
 2092              		.loc 1 59 0
 2093 014c 020000EA 		b	.L12
 2094              	.L10:
  57:../button.c   **** 	    Uart_SendByte1('R'); // enviar caracter
 2095              		.loc 1 57 0
 2096 0150 5200A0E3 		mov	r0, #82
 2097 0154 FEFFFFEB 		bl	Uart_SendByte1
 2098              		.loc 1 59 0
 2099 0158 0000A0E1 		mov	r0, r0	@ nop
 2100              	.L12:
 2101              		.loc 1 59 0 is_stmt 0 discriminator 1
 2102 015c FEFFFFEB 		bl	esta_pulsado
 2103 0160 0030A0E1 		mov	r3, r0
 2104 0164 000053E3 		cmp	r3, #0
 2105 0168 FBFFFF1A 		bne	.L12
  60:../button.c   **** 
  61:../button.c   **** 	//Delay para eliminar rebotes
  62:../button.c   **** 	DelayMs(100);
 2106              		.loc 1 62 0 is_stmt 1
 2107 016c 6400A0E3 		mov	r0, #100
 2108 0170 FEFFFFEB 		bl	DelayMs
  63:../button.c   **** 	
  64:../button.c   **** 	//Atendemos interrupciones
  65:../button.c   **** 	//Borramos EXTINTPND ambas líneas EINT7 y EINT6
  66:../button.c   **** 	rEXTINTPND = 0xC;
 2109              		.loc 1 66 0
 2110 0174 24309FE5 		ldr	r3, .L13+4
 2111 0178 0C20A0E3 		mov	r2, #12
 2112 017c 002083E5 		str	r2, [r3, #0]
  67:../button.c   **** 	//Borramos INTPND usando ISPC
  68:../button.c   **** 	rI_ISPC = BIT_EINT4567;
 2113              		.loc 1 68 0
 2114 0180 1C309FE5 		ldr	r3, .L13+8
 2115 0184 0226A0E3 		mov	r2, #2097152
 2116 0188 002083E5 		str	r2, [r3, #0]
  69:../button.c   **** }
 2117              		.loc 1 69 0
 2118 018c 1CD04BE2 		sub	sp, fp, #28
 2119 0190 0F689DE8 		ldmfd	sp, {r0, r1, r2, r3, fp, sp, lr}
 2120 0194 04C09DE4 		ldmfd	sp!, {ip}
 2121 0198 04F05EE2 		subs	pc, lr, #4
 2122              	.L14:
 2123              		.align	2
 2124              	.L13:
 2125 019c 4400D201 		.word	30539844
 2126 01a0 5400D201 		.word	30539860
 2127 01a4 2400E001 		.word	31457316
 2128              		.cfi_endproc
 2129              	.LFE2:
 2131              	.Letext0: