   1              		.cpu arm7tdmi
   2              		.fpu softvfp
   3              		.eabi_attribute 20, 1
   4              		.eabi_attribute 21, 1
   5              		.eabi_attribute 23, 3
   6              		.eabi_attribute 24, 1
   7              		.eabi_attribute 25, 1
   8              		.eabi_attribute 26, 1
   9              		.eabi_attribute 30, 6
  10              		.eabi_attribute 18, 4
  11              		.file	"44blib.c"
  21              	.Ltext0:
  22              		.file 1 "../commonUart/44blib.c"
 3128              		.align	2
 3131              	mallocPt:
 3132 0000 00000000 		.word	Image_RW_Limit
 3133              		.global	restart
 3134              		.bss
 3135              		.align	2
 3138              	restart:
 3139 0000 00000000 		.space	4
 3140              		.global	run
 3141              		.data
 3142              		.align	2
 3145              	run:
 3146 0004 0000000C 		.word	201326592
 3147              		.align	2
 3150              	delayLoopCount:
 3151 0008 90010000 		.word	400
 3152              		.global	__aeabi_idiv
 3153              		.text
 3154              		.align	2
 3155              		.global	Delay
 3157              	Delay:
 3158              	.LFB0:
   1:../commonUart/44blib.c **** #include "44b.h"
   2:../commonUart/44blib.c **** #include "44blib.h"
   3:../commonUart/44blib.c **** #include "def.h"
   4:../commonUart/44blib.c **** #include "option.h"
   5:../commonUart/44blib.c **** 
   6:../commonUart/44blib.c **** #include <stdarg.h>
   7:../commonUart/44blib.c **** #include <string.h>
   8:../commonUart/44blib.c **** #include <stdio.h>
   9:../commonUart/44blib.c **** #include <ctype.h>
  10:../commonUart/44blib.c **** 
  11:../commonUart/44blib.c **** #define STACKSIZE    0xa00 //SVC satck size(do not use user stack)//
  12:../commonUart/44blib.c **** #define HEAPEND     (_ISR_STARTADDRESS-STACKSIZE-0x500) // = 0xc7ff000//
  13:../commonUart/44blib.c **** //SVC Stack Area:0xc(e)7ff000-0xc(e)7ffaff//
  14:../commonUart/44blib.c **** 
  15:../commonUart/44blib.c **** extern char Image_RW_Limit[];
  16:../commonUart/44blib.c **** volatile unsigned char *downPt;
  17:../commonUart/44blib.c **** unsigned int fileSize;
  18:../commonUart/44blib.c **** void *mallocPt=Image_RW_Limit;
  19:../commonUart/44blib.c **** 
  20:../commonUart/44blib.c **** void (*restart)(void)=(void (*)(void))0x0;
  21:../commonUart/44blib.c **** void (*run)(void)=(void (*)(void))DOWNLOAD_ADDRESS;
  22:../commonUart/44blib.c **** 
  23:../commonUart/44blib.c **** //--------------------------------SYSTEM---------------------------------//
  24:../commonUart/44blib.c **** static int delayLoopCount=400;
  25:../commonUart/44blib.c **** 
  26:../commonUart/44blib.c **** void Delay(int time)
  27:../commonUart/44blib.c **** // time=0: adjust the Delay function by WatchDog timer.//
  28:../commonUart/44blib.c **** // time>0: the number of loop time//
  29:../commonUart/44blib.c **** // 100us resolution.//
  30:../commonUart/44blib.c **** {
 3159              		.loc 1 30 0
 3160              		.cfi_startproc
 3161              		@ Function supports interworking.
 3162              		@ args = 0, pretend = 0, frame = 16
 3163              		@ frame_needed = 1, uses_anonymous_args = 0
 3164 0000 0DC0A0E1 		mov	ip, sp
 3165              	.LCFI0:
 3166              		.cfi_def_cfa_register 12
 3167 0004 00D82DE9 		stmfd	sp!, {fp, ip, lr, pc}
 3168 0008 04B04CE2 		sub	fp, ip, #4
 3169              		.cfi_offset 14, -8
 3170              		.cfi_offset 13, -12
 3171              		.cfi_offset 11, -16
 3172              	.LCFI1:
 3173              		.cfi_def_cfa 11, 4
 3174 000c 10D04DE2 		sub	sp, sp, #16
 3175 0010 18000BE5 		str	r0, [fp, #-24]
  31:../commonUart/44blib.c **** 	int i,adjust=0;
 3176              		.loc 1 31 0
 3177 0014 0030A0E3 		mov	r3, #0
 3178 0018 14300BE5 		str	r3, [fp, #-20]
  32:../commonUart/44blib.c **** 	if(time==0)
 3179              		.loc 1 32 0
 3180 001c 18301BE5 		ldr	r3, [fp, #-24]
 3181 0020 000053E3 		cmp	r3, #0
 3182 0024 2100001A 		bne	.L3
  33:../commonUart/44blib.c **** 	{
  34:../commonUart/44blib.c **** 		time=200;
 3183              		.loc 1 34 0
 3184 0028 C830A0E3 		mov	r3, #200
 3185 002c 18300BE5 		str	r3, [fp, #-24]
  35:../commonUart/44blib.c **** 		adjust=1;
 3186              		.loc 1 35 0
 3187 0030 0130A0E3 		mov	r3, #1
 3188 0034 14300BE5 		str	r3, [fp, #-20]
  36:../commonUart/44blib.c **** 		delayLoopCount=400;
 3189              		.loc 1 36 0
 3190 0038 D8309FE5 		ldr	r3, .L8
 3191 003c 192EA0E3 		mov	r2, #400
 3192 0040 002083E5 		str	r2, [r3, #0]
  37:../commonUart/44blib.c **** 		rWTCON=((MCLK/1000000-1)<<8)|(2<<3);	// 1M/64,Watch-dog,nRESET,interrupt disable//
 3193              		.loc 1 37 0
 3194 0044 D0309FE5 		ldr	r3, .L8+4
 3195 0048 D0209FE5 		ldr	r2, .L8+8
 3196 004c 002083E5 		str	r2, [r3, #0]
  38:../commonUart/44blib.c **** 		rWTDAT=0xffff;
 3197              		.loc 1 38 0
 3198 0050 CC309FE5 		ldr	r3, .L8+12
 3199 0054 CC209FE5 		ldr	r2, .L8+16
 3200 0058 002083E5 		str	r2, [r3, #0]
  39:../commonUart/44blib.c **** 		rWTCNT=0xffff;	 
 3201              		.loc 1 39 0
 3202 005c C8309FE5 		ldr	r3, .L8+20
 3203 0060 C0209FE5 		ldr	r2, .L8+16
 3204 0064 002083E5 		str	r2, [r3, #0]
  40:../commonUart/44blib.c **** 		rWTCON=((MCLK/1000000-1)<<8)|(2<<3)|(1<<5); // 1M/64,Watch-dog enable,nRESET,interrupt disable //
 3205              		.loc 1 40 0
 3206 0068 AC309FE5 		ldr	r3, .L8+4
 3207 006c BC209FE5 		ldr	r2, .L8+24
 3208 0070 002083E5 		str	r2, [r3, #0]
  41:../commonUart/44blib.c **** 	}
  42:../commonUart/44blib.c **** 	for(;time>0;time--)
 3209              		.loc 1 42 0
 3210 0074 0D0000EA 		b	.L3
 3211              	.L6:
  43:../commonUart/44blib.c **** 		for(i=0;i<delayLoopCount;i++);
 3212              		.loc 1 43 0
 3213 0078 0030A0E3 		mov	r3, #0
 3214 007c 10300BE5 		str	r3, [fp, #-16]
 3215 0080 020000EA 		b	.L4
 3216              	.L5:
 3217              		.loc 1 43 0 is_stmt 0 discriminator 2
 3218 0084 10301BE5 		ldr	r3, [fp, #-16]
 3219 0088 013083E2 		add	r3, r3, #1
 3220 008c 10300BE5 		str	r3, [fp, #-16]
 3221              	.L4:
 3222              		.loc 1 43 0 discriminator 1
 3223 0090 80309FE5 		ldr	r3, .L8
 3224 0094 003093E5 		ldr	r3, [r3, #0]
 3225 0098 10201BE5 		ldr	r2, [fp, #-16]
 3226 009c 030052E1 		cmp	r2, r3
 3227 00a0 F7FFFFBA 		blt	.L5
  42:../commonUart/44blib.c **** 	for(;time>0;time--)
 3228              		.loc 1 42 0 is_stmt 1
 3229 00a4 18301BE5 		ldr	r3, [fp, #-24]
 3230 00a8 013043E2 		sub	r3, r3, #1
 3231 00ac 18300BE5 		str	r3, [fp, #-24]
 3232              	.L3:
  42:../commonUart/44blib.c **** 	for(;time>0;time--)
 3233              		.loc 1 42 0 is_stmt 0 discriminator 1
 3234 00b0 18301BE5 		ldr	r3, [fp, #-24]
 3235 00b4 000053E3 		cmp	r3, #0
 3236 00b8 EEFFFFCA 		bgt	.L6
  44:../commonUart/44blib.c **** 	if(adjust==1)
 3237              		.loc 1 44 0 is_stmt 1
 3238 00bc 14301BE5 		ldr	r3, [fp, #-20]
 3239 00c0 010053E3 		cmp	r3, #1
 3240 00c4 1000001A 		bne	.L1
  45:../commonUart/44blib.c **** 	{
  46:../commonUart/44blib.c **** 		rWTCON=((MCLK/1000000-1)<<8)|(2<<3);
 3241              		.loc 1 46 0
 3242 00c8 4C309FE5 		ldr	r3, .L8+4
 3243 00cc 4C209FE5 		ldr	r2, .L8+8
 3244 00d0 002083E5 		str	r2, [r3, #0]
  47:../commonUart/44blib.c **** 		i=0xffff-rWTCNT;   //  1count/16us?????????//
 3245              		.loc 1 47 0
 3246 00d4 50309FE5 		ldr	r3, .L8+20
 3247 00d8 003093E5 		ldr	r3, [r3, #0]
 3248 00dc FF3C63E2 		rsb	r3, r3, #65280
 3249 00e0 FF3083E2 		add	r3, r3, #255
 3250 00e4 10300BE5 		str	r3, [fp, #-16]
  48:../commonUart/44blib.c **** 		delayLoopCount=8000000/(i*64);	//400*100/(i*64/200)   //
 3251              		.loc 1 48 0
 3252 00e8 10301BE5 		ldr	r3, [fp, #-16]
 3253 00ec 0333A0E1 		mov	r3, r3, asl #6
 3254 00f0 3C009FE5 		ldr	r0, .L8+28
 3255 00f4 0310A0E1 		mov	r1, r3
 3256 00f8 FEFFFFEB 		bl	__aeabi_idiv
 3257 00fc 0030A0E1 		mov	r3, r0
 3258 0100 0320A0E1 		mov	r2, r3
 3259 0104 0C309FE5 		ldr	r3, .L8
 3260 0108 002083E5 		str	r2, [r3, #0]
 3261              	.L1:
  49:../commonUart/44blib.c **** 	}
  50:../commonUart/44blib.c **** }
 3262              		.loc 1 50 0
 3263 010c 0CD04BE2 		sub	sp, fp, #12
 3264 0110 00689DE8 		ldmfd	sp, {fp, sp, lr}
 3265 0114 1EFF2FE1 		bx	lr
 3266              	.L9:
 3267              		.align	2
 3268              	.L8:
 3269 0118 08000000 		.word	delayLoopCount
 3270 011c 0000D301 		.word	30605312
 3271 0120 103F0000 		.word	16144
 3272 0124 0400D301 		.word	30605316
 3273 0128 FFFF0000 		.word	65535
 3274 012c 0800D301 		.word	30605320
 3275 0130 303F0000 		.word	16176
 3276 0134 00127A00 		.word	8000000
 3277              		.cfi_endproc
 3278              	.LFE0:
 3280              		.align	2
 3281              		.global	DelayMs
 3283              	DelayMs:
 3284              	.LFB1:
  51:../commonUart/44blib.c **** 
  52:../commonUart/44blib.c **** void DelayMs(int ms_time)
  53:../commonUart/44blib.c **** {
 3285              		.loc 1 53 0
 3286              		.cfi_startproc
 3287              		@ Function supports interworking.
 3288              		@ args = 0, pretend = 0, frame = 16
 3289              		@ frame_needed = 1, uses_anonymous_args = 0
 3290 0138 0DC0A0E1 		mov	ip, sp
 3291              	.LCFI2:
 3292              		.cfi_def_cfa_register 12
 3293 013c 00D82DE9 		stmfd	sp!, {fp, ip, lr, pc}
 3294 0140 04B04CE2 		sub	fp, ip, #4
 3295              		.cfi_offset 14, -8
 3296              		.cfi_offset 13, -12
 3297              		.cfi_offset 11, -16
 3298              	.LCFI3:
 3299              		.cfi_def_cfa 11, 4
 3300 0144 10D04DE2 		sub	sp, sp, #16
 3301 0148 18000BE5 		str	r0, [fp, #-24]
  54:../commonUart/44blib.c **** 	int i;
  55:../commonUart/44blib.c **** 	
  56:../commonUart/44blib.c **** 	for( i = 0 ; i < 1000*ms_time ; i++ )
 3302              		.loc 1 56 0
 3303 014c 0030A0E3 		mov	r3, #0
 3304 0150 10300BE5 		str	r3, [fp, #-16]
 3305 0154 020000EA 		b	.L11
 3306              	.L12:
 3307              		.loc 1 56 0 is_stmt 0 discriminator 2
 3308 0158 10301BE5 		ldr	r3, [fp, #-16]
 3309 015c 013083E2 		add	r3, r3, #1
 3310 0160 10300BE5 		str	r3, [fp, #-16]
 3311              	.L11:
 3312              		.loc 1 56 0 discriminator 1
 3313 0164 18201BE5 		ldr	r2, [fp, #-24]
 3314 0168 0230A0E1 		mov	r3, r2
 3315 016c 8332A0E1 		mov	r3, r3, asl #5
 3316 0170 033062E0 		rsb	r3, r2, r3
 3317 0174 0331A0E1 		mov	r3, r3, asl #2
 3318 0178 023083E0 		add	r3, r3, r2
 3319 017c 8331A0E1 		mov	r3, r3, asl #3
 3320 0180 0320A0E1 		mov	r2, r3
 3321 0184 10301BE5 		ldr	r3, [fp, #-16]
 3322 0188 030052E1 		cmp	r2, r3
 3323 018c F1FFFFCA 		bgt	.L12
  57:../commonUart/44blib.c **** 		;
  58:../commonUart/44blib.c **** }
 3324              		.loc 1 58 0 is_stmt 1
 3325 0190 0CD04BE2 		sub	sp, fp, #12
 3326 0194 00689DE8 		ldmfd	sp, {fp, sp, lr}
 3327 0198 1EFF2FE1 		bx	lr
 3328              		.cfi_endproc
 3329              	.LFE1:
 3331              		.align	2
 3332              		.global	Port_Init
 3334              	Port_Init:
 3335              	.LFB2:
  59:../commonUart/44blib.c **** 
  60:../commonUart/44blib.c **** //------------------------PORTS------------------------------//
  61:../commonUart/44blib.c **** void Port_Init(void)
  62:../commonUart/44blib.c **** {
 3336              		.loc 1 62 0
 3337              		.cfi_startproc
 3338              		@ Function supports interworking.
 3339              		@ args = 0, pretend = 0, frame = 0
 3340              		@ frame_needed = 1, uses_anonymous_args = 0
 3341 019c 0DC0A0E1 		mov	ip, sp
 3342              	.LCFI4:
 3343              		.cfi_def_cfa_register 12
 3344 01a0 00D82DE9 		stmfd	sp!, {fp, ip, lr, pc}
 3345 01a4 04B04CE2 		sub	fp, ip, #4
 3346              		.cfi_offset 14, -8
 3347              		.cfi_offset 13, -12
 3348              		.cfi_offset 11, -16
 3349              	.LCFI5:
 3350              		.cfi_def_cfa 11, 4
  63:../commonUart/44blib.c **** 	//CAUTION:Follow the configuration order for setting the ports. 
  64:../commonUart/44blib.c **** 	// 1) setting value 
  65:../commonUart/44blib.c **** 	// 2) setting control register 
  66:../commonUart/44blib.c **** 	// 3) configure pull-up resistor.  
  67:../commonUart/44blib.c **** 
  68:../commonUart/44blib.c **** 	//16bit data bus configuration  
  69:../commonUart/44blib.c **** 
  70:../commonUart/44blib.c **** 	// PORT A GROUP
  71:../commonUart/44blib.c **** 	// BIT 	9	8	7	6	5	4	3	2	1	0
  72:../commonUart/44blib.c **** 	// 		A24	A23	A22	A21	A20	A19	A18	A17	A16	A0
  73:../commonUart/44blib.c **** 	//		0	1	1	1	1	1	1	1	1	1
  74:../commonUart/44blib.c **** 	rPCONA = 0x1ff;	
 3351              		.loc 1 74 0
 3352 01a8 0C319FE5 		ldr	r3, .L14
 3353 01ac 0C219FE5 		ldr	r2, .L14+4
 3354 01b0 002083E5 		str	r2, [r3, #0]
  75:../commonUart/44blib.c **** 
  76:../commonUart/44blib.c **** 	// PORT B GROUP
  77:../commonUart/44blib.c **** 	// BIT 	10		9		8		7		6		5		4		3		2		1		0
  78:../commonUart/44blib.c **** 	//		/CS5	/CS4	/CS3	/CS2	/CS1	GPB5	GPB4	/SRAS	/SCAS	SCLK	SCKE
  79:../commonUart/44blib.c **** 	//		EXT		NIC		USB		IDE		SMC		NC		NC		Sdram	Sdram	Sdram	Sdram
  80:../commonUart/44blib.c **** 	//      1, 		1,   	1,   	1,    	1,    	0,       0,     1,    	1,    	1,   	1	
  81:../commonUart/44blib.c **** 	rPDATB = 0x7ff;				
 3355              		.loc 1 81 0
 3356 01b4 08319FE5 		ldr	r3, .L14+8
 3357 01b8 08219FE5 		ldr	r2, .L14+12
 3358 01bc 002083E5 		str	r2, [r3, #0]
  82:../commonUart/44blib.c **** 	rPCONB = 0x1cf;			// P9-LED1 P10-LED2
 3359              		.loc 1 82 0
 3360 01c0 04319FE5 		ldr	r3, .L14+16
 3361 01c4 04219FE5 		ldr	r2, .L14+20
 3362 01c8 002083E5 		str	r2, [r3, #0]
  83:../commonUart/44blib.c ****     
  84:../commonUart/44blib.c **** 	// PORT C GROUP
  85:../commonUart/44blib.c **** 	// BUSWIDTH=16
  86:../commonUart/44blib.c **** 	//  PC15	14		13		12		11		10		9		8
  87:../commonUart/44blib.c **** 	//	I		I		RXD1	TXD1	I		I		I		I
  88:../commonUart/44blib.c **** 	//	NC		NC		Uart1	Uart1	NC		NC		NC		NC
  89:../commonUart/44blib.c **** 	//	00		00		11		11		00		00		00		00
  90:../commonUart/44blib.c **** 
  91:../commonUart/44blib.c **** 	//  PC7		6		5		4		3		2		1		0
  92:../commonUart/44blib.c **** 	//   I		I		I		I		I		I		I		I
  93:../commonUart/44blib.c **** 	//   NC		NC		NC		NC		IISCLK	IISDI	IISDO	IISLRCK
  94:../commonUart/44blib.c **** 	//   00		00		00		00		11		11		11		11
  95:../commonUart/44blib.c **** 	rPDATC = 0xff00;
 3363              		.loc 1 95 0
 3364 01cc 00319FE5 		ldr	r3, .L14+24
 3365 01d0 FF2CA0E3 		mov	r2, #65280
 3366 01d4 002083E5 		str	r2, [r3, #0]
  96:../commonUart/44blib.c **** 	//rPCONC = 0x0ff0ffff;	
  97:../commonUart/44blib.c **** 	rPCONC = rPCONC | (0x01 << 30)
 3367              		.loc 1 97 0
 3368 01d8 F8209FE5 		ldr	r2, .L14+28
 3369 01dc F4309FE5 		ldr	r3, .L14+28
 3370 01e0 003093E5 		ldr	r3, [r3, #0]
  98:../commonUart/44blib.c **** 			| (0x11 << 26)
  99:../commonUart/44blib.c **** 			| (0x11 << 24)
 100:../commonUart/44blib.c **** 			| (0x11 << 20)
 101:../commonUart/44blib.c **** 			| (0x00 << 28)
 102:../commonUart/44blib.c **** 			| (0x11 << 22)
 103:../commonUart/44blib.c **** 			| (0x00 << 18)
 104:../commonUart/44blib.c **** 			| (0x00 << 16);
 3371              		.loc 1 104 0
 3372 01e4 553483E3 		orr	r3, r3, #1426063360
 3373 01e8 053683E3 		orr	r3, r3, #5242880
  97:../commonUart/44blib.c **** 	rPCONC = rPCONC | (0x01 << 30)
 3374              		.loc 1 97 0
 3375 01ec 003082E5 		str	r3, [r2, #0]
 105:../commonUart/44blib.c **** 	rPUPC  = 0x30ff;	//PULL UP RESISTOR should be enabled to I/O
 3376              		.loc 1 105 0
 3377 01f0 E4309FE5 		ldr	r3, .L14+32
 3378 01f4 E4209FE5 		ldr	r2, .L14+36
 3379 01f8 002083E5 		str	r2, [r3, #0]
 106:../commonUart/44blib.c **** 
 107:../commonUart/44blib.c **** 	// PORT D GROUP
 108:../commonUart/44blib.c **** 	// PORT D GROUP(I/O OR LCD)
 109:../commonUart/44blib.c **** 	// BIT7		6		5		4		3		2		1		0
 110:../commonUart/44blib.c **** 	//	VF		VM		VLINE	VCLK	VD3		VD2		VD1		VD0
 111:../commonUart/44blib.c **** 	//	00		00		00		00		00		00		00		00
 112:../commonUart/44blib.c **** 	rPDATD= 0xff;
 3380              		.loc 1 112 0
 3381 01fc E0309FE5 		ldr	r3, .L14+40
 3382 0200 FF20A0E3 		mov	r2, #255
 3383 0204 002083E5 		str	r2, [r3, #0]
 113:../commonUart/44blib.c **** 	rPCOND= 0xaaaa;	
 3384              		.loc 1 113 0
 3385 0208 D8309FE5 		ldr	r3, .L14+44
 3386 020c D8209FE5 		ldr	r2, .L14+48
 3387 0210 002083E5 		str	r2, [r3, #0]
 114:../commonUart/44blib.c **** 	rPUPD = 0x0;
 3388              		.loc 1 114 0
 3389 0214 D4309FE5 		ldr	r3, .L14+52
 3390 0218 0020A0E3 		mov	r2, #0
 3391 021c 002083E5 		str	r2, [r3, #0]
 115:../commonUart/44blib.c **** 	// These pins must be set only after CPU's internal LCD controller is enable
 116:../commonUart/44blib.c **** 	
 117:../commonUart/44blib.c **** 	// PORT E GROUP 
 118:../commonUart/44blib.c **** 	// Bit	8		7		6		5		4		3		2		1		0
 119:../commonUart/44blib.c **** 	//  	CODECLK	LED4	LED5	LED6	LED7	BEEP	RXD0	TXD0	LcdDisp
 120:../commonUart/44blib.c **** 	//  	10		01		01		01		01		01		10		10		01
 121:../commonUart/44blib.c **** 	rPDATE	= 0x1ff;
 3392              		.loc 1 121 0
 3393 0220 CC309FE5 		ldr	r3, .L14+56
 3394 0224 94209FE5 		ldr	r2, .L14+4
 3395 0228 002083E5 		str	r2, [r3, #0]
 122:../commonUart/44blib.c **** 	rPCONE	= 0x25529;	
 3396              		.loc 1 122 0
 3397 022c C4309FE5 		ldr	r3, .L14+60
 3398 0230 C4209FE5 		ldr	r2, .L14+64
 3399 0234 002083E5 		str	r2, [r3, #0]
 123:../commonUart/44blib.c **** 	rPUPE	= 0x6;
 3400              		.loc 1 123 0
 3401 0238 C0309FE5 		ldr	r3, .L14+68
 3402 023c 0620A0E3 		mov	r2, #6
 3403 0240 002083E5 		str	r2, [r3, #0]
 124:../commonUart/44blib.c **** 	
 125:../commonUart/44blib.c **** 	// PORT F GROUP
 126:../commonUart/44blib.c **** 	// Bit8		7		6		5		 4		3		2		1		0
 127:../commonUart/44blib.c **** 	// IISCLK	IISDI	IISDO	IISLRCK	Input	Input	Input	IICSDA	IICSCL
 128:../commonUart/44blib.c **** 	// 100		100		100		100		00		00		00		10		10
 129:../commonUart/44blib.c **** 	rPDATF = 0x0;
 3404              		.loc 1 129 0
 3405 0244 B8309FE5 		ldr	r3, .L14+72
 3406 0248 0020A0E3 		mov	r2, #0
 3407 024c 002083E5 		str	r2, [r3, #0]
 130:../commonUart/44blib.c **** 	rPCONF = 0x252a;
 3408              		.loc 1 130 0
 3409 0250 B0309FE5 		ldr	r3, .L14+76
 3410 0254 B0209FE5 		ldr	r2, .L14+80
 3411 0258 002083E5 		str	r2, [r3, #0]
 131:../commonUart/44blib.c **** 	rPUPF  = 0x0;
 3412              		.loc 1 131 0
 3413 025c AC309FE5 		ldr	r3, .L14+84
 3414 0260 0020A0E3 		mov	r2, #0
 3415 0264 002083E5 		str	r2, [r3, #0]
 132:../commonUart/44blib.c **** 
 133:../commonUart/44blib.c **** 	// PORT G GROUP
 134:../commonUart/44blib.c **** 	// BIT7		6		5		4		3		2		1		0
 135:../commonUart/44blib.c **** 	// 	INT7	INT6	INT5	INT4	INT3	INT2	INT1	INT0
 136:../commonUart/44blib.c **** 	//	S3		S4		S5		S6		NIC		EXT		IDE		USB
 137:../commonUart/44blib.c **** 	//	11      11      11      11      11      11      11      11
 138:../commonUart/44blib.c **** 	rPDATG = 0xff;
 3416              		.loc 1 138 0
 3417 0268 A4309FE5 		ldr	r3, .L14+88
 3418 026c FF20A0E3 		mov	r2, #255
 3419 0270 002083E5 		str	r2, [r3, #0]
 139:../commonUart/44blib.c **** 	rPCONG = 0xffff;
 3420              		.loc 1 139 0
 3421 0274 9C309FE5 		ldr	r3, .L14+92
 3422 0278 9C209FE5 		ldr	r2, .L14+96
 3423 027c 002083E5 		str	r2, [r3, #0]
 140:../commonUart/44blib.c **** 	rPUPG  = 0x0;		//pull-up portG enabled  
 3424              		.loc 1 140 0
 3425 0280 98309FE5 		ldr	r3, .L14+100
 3426 0284 0020A0E3 		mov	r2, #0
 3427 0288 002083E5 		str	r2, [r3, #0]
 141:../commonUart/44blib.c **** 	rSPUCR = 0x7;  		//D15-D0 pull-up disable
 3428              		.loc 1 141 0
 3429 028c 90309FE5 		ldr	r3, .L14+104
 3430 0290 0720A0E3 		mov	r2, #7
 3431 0294 002083E5 		str	r2, [r3, #0]
 142:../commonUart/44blib.c **** 
 143:../commonUart/44blib.c **** 	/* Non Cache area */
 144:../commonUart/44blib.c **** 	rNCACHBE0=((Non_Cache_End>>12)<<16)|(Non_Cache_Start>>12); 
 3432              		.loc 1 144 0
 3433 0298 88309FE5 		ldr	r3, .L14+108
 3434 029c 88209FE5 		ldr	r2, .L14+112
 3435 02a0 002083E5 		str	r2, [r3, #0]
 145:../commonUart/44blib.c **** 
 146:../commonUart/44blib.c **** 	/* Low level default */
 147:../commonUart/44blib.c **** 	rEXTINT=0x0;
 3436              		.loc 1 147 0
 3437 02a4 84309FE5 		ldr	r3, .L14+116
 3438 02a8 0020A0E3 		mov	r2, #0
 3439 02ac 002083E5 		str	r2, [r3, #0]
 148:../commonUart/44blib.c **** }
 3440              		.loc 1 148 0
 3441 02b0 0CD04BE2 		sub	sp, fp, #12
 3442 02b4 00689DE8 		ldmfd	sp, {fp, sp, lr}
 3443 02b8 1EFF2FE1 		bx	lr
 3444              	.L15:
 3445              		.align	2
 3446              	.L14:
 3447 02bc 0000D201 		.word	30539776
 3448 02c0 FF010000 		.word	511
 3449 02c4 0C00D201 		.word	30539788
 3450 02c8 FF070000 		.word	2047
 3451 02cc 0800D201 		.word	30539784
 3452 02d0 CF010000 		.word	463
 3453 02d4 1400D201 		.word	30539796
 3454 02d8 1000D201 		.word	30539792
 3455 02dc 1800D201 		.word	30539800
 3456 02e0 FF300000 		.word	12543
 3457 02e4 2000D201 		.word	30539808
 3458 02e8 1C00D201 		.word	30539804
 3459 02ec AAAA0000 		.word	43690
 3460 02f0 2400D201 		.word	30539812
 3461 02f4 2C00D201 		.word	30539820
 3462 02f8 2800D201 		.word	30539816
 3463 02fc 29550200 		.word	152873
 3464 0300 3000D201 		.word	30539824
 3465 0304 3800D201 		.word	30539832
 3466 0308 3400D201 		.word	30539828
 3467 030c 2A250000 		.word	9514
 3468 0310 3C00D201 		.word	30539836
 3469 0314 4400D201 		.word	30539844
 3470 0318 4000D201 		.word	30539840
 3471 031c FFFF0000 		.word	65535
 3472 0320 4800D201 		.word	30539848
 3473 0324 4C00D201 		.word	30539852
 3474 0328 0400C001 		.word	29360132
 3475 032c 002000C0 		.word	-1073733632
 3476 0330 5000D201 		.word	30539856
 3477              		.cfi_endproc
 3478              	.LFE2:
 3480              		.align	2
 3481              		.global	malloc
 3483              	malloc:
 3484              	.LFB3:
 149:../commonUart/44blib.c **** 
 150:../commonUart/44blib.c **** 
 151:../commonUart/44blib.c **** //--------------------------------HEAP---------------------------------//
 152:../commonUart/44blib.c **** void * malloc(unsigned nbyte) 
 153:../commonUart/44blib.c **** /*Very simple; Use malloc() & free() like Stack*/
 154:../commonUart/44blib.c **** //void *mallocPt=Image$$RW$$Limit;
 155:../commonUart/44blib.c **** {
 3485              		.loc 1 155 0
 3486              		.cfi_startproc
 3487              		@ Function supports interworking.
 3488              		@ args = 0, pretend = 0, frame = 16
 3489              		@ frame_needed = 1, uses_anonymous_args = 0
 3490 0334 0DC0A0E1 		mov	ip, sp
 3491              	.LCFI6:
 3492              		.cfi_def_cfa_register 12
 3493 0338 00D82DE9 		stmfd	sp!, {fp, ip, lr, pc}
 3494 033c 04B04CE2 		sub	fp, ip, #4
 3495              		.cfi_offset 14, -8
 3496              		.cfi_offset 13, -12
 3497              		.cfi_offset 11, -16
 3498              	.LCFI7:
 3499              		.cfi_def_cfa 11, 4
 3500 0340 10D04DE2 		sub	sp, sp, #16
 3501 0344 18000BE5 		str	r0, [fp, #-24]
 156:../commonUart/44blib.c ****     void *returnPt=mallocPt;
 3502              		.loc 1 156 0
 3503 0348 7C309FE5 		ldr	r3, .L19
 3504 034c 003093E5 		ldr	r3, [r3, #0]
 3505 0350 10300BE5 		str	r3, [fp, #-16]
 157:../commonUart/44blib.c **** 
 158:../commonUart/44blib.c ****     mallocPt= (int *)mallocPt+nbyte/4+((nbyte%4)>0); //to align 4byte
 3506              		.loc 1 158 0
 3507 0354 70309FE5 		ldr	r3, .L19
 3508 0358 002093E5 		ldr	r2, [r3, #0]
 3509 035c 18301BE5 		ldr	r3, [fp, #-24]
 3510 0360 2311A0E1 		mov	r1, r3, lsr #2
 3511 0364 18301BE5 		ldr	r3, [fp, #-24]
 3512 0368 033003E2 		and	r3, r3, #3
 3513 036c 000053E3 		cmp	r3, #0
 3514 0370 0030A003 		moveq	r3, #0
 3515 0374 0130A013 		movne	r3, #1
 3516 0378 033081E0 		add	r3, r1, r3
 3517 037c 0331A0E1 		mov	r3, r3, asl #2
 3518 0380 032082E0 		add	r2, r2, r3
 3519 0384 40309FE5 		ldr	r3, .L19
 3520 0388 002083E5 		str	r2, [r3, #0]
 159:../commonUart/44blib.c **** 
 160:../commonUart/44blib.c ****     if( (int)mallocPt > HEAPEND )
 3521              		.loc 1 160 0
 3522 038c 38309FE5 		ldr	r3, .L19
 3523 0390 003093E5 		ldr	r3, [r3, #0]
 3524 0394 0320A0E1 		mov	r2, r3
 3525 0398 30309FE5 		ldr	r3, .L19+4
 3526 039c 030052E1 		cmp	r2, r3
 3527 03a0 040000DA 		ble	.L17
 161:../commonUart/44blib.c ****     {
 162:../commonUart/44blib.c **** 		mallocPt=returnPt;
 3528              		.loc 1 162 0
 3529 03a4 20309FE5 		ldr	r3, .L19
 3530 03a8 10201BE5 		ldr	r2, [fp, #-16]
 3531 03ac 002083E5 		str	r2, [r3, #0]
 163:../commonUart/44blib.c **** 		return NULL;
 3532              		.loc 1 163 0
 3533 03b0 0030A0E3 		mov	r3, #0
 3534 03b4 000000EA 		b	.L18
 3535              	.L17:
 164:../commonUart/44blib.c ****     }
 165:../commonUart/44blib.c ****     return returnPt;
 3536              		.loc 1 165 0
 3537 03b8 10301BE5 		ldr	r3, [fp, #-16]
 3538              	.L18:
 166:../commonUart/44blib.c **** }
 3539              		.loc 1 166 0
 3540 03bc 0300A0E1 		mov	r0, r3
 3541 03c0 0CD04BE2 		sub	sp, fp, #12
 3542 03c4 00689DE8 		ldmfd	sp, {fp, sp, lr}
 3543 03c8 1EFF2FE1 		bx	lr
 3544              	.L20:
 3545              		.align	2
 3546              	.L19:
 3547 03cc 00000000 		.word	mallocPt
 3548 03d0 00F07F0C 		.word	209711104
 3549              		.cfi_endproc
 3550              	.LFE3:
 3552              		.align	2
 3553              		.global	free
 3555              	free:
 3556              	.LFB4:
 167:../commonUart/44blib.c **** 
 168:../commonUart/44blib.c **** void free(void *pt)
 169:../commonUart/44blib.c **** {
 3557              		.loc 1 169 0
 3558              		.cfi_startproc
 3559              		@ Function supports interworking.
 3560              		@ args = 0, pretend = 0, frame = 8
 3561              		@ frame_needed = 1, uses_anonymous_args = 0
 3562 03d4 0DC0A0E1 		mov	ip, sp
 3563              	.LCFI8:
 3564              		.cfi_def_cfa_register 12
 3565 03d8 00D82DE9 		stmfd	sp!, {fp, ip, lr, pc}
 3566 03dc 04B04CE2 		sub	fp, ip, #4
 3567              		.cfi_offset 14, -8
 3568              		.cfi_offset 13, -12
 3569              		.cfi_offset 11, -16
 3570              	.LCFI9:
 3571              		.cfi_def_cfa 11, 4
 3572 03e0 08D04DE2 		sub	sp, sp, #8
 3573 03e4 10000BE5 		str	r0, [fp, #-16]
 170:../commonUart/44blib.c ****     mallocPt=pt;
 3574              		.loc 1 170 0
 3575 03e8 10309FE5 		ldr	r3, .L22
 3576 03ec 10201BE5 		ldr	r2, [fp, #-16]
 3577 03f0 002083E5 		str	r2, [r3, #0]
 171:../commonUart/44blib.c **** }
 3578              		.loc 1 171 0
 3579 03f4 0CD04BE2 		sub	sp, fp, #12
 3580 03f8 00689DE8 		ldmfd	sp, {fp, sp, lr}
 3581 03fc 1EFF2FE1 		bx	lr
 3582              	.L23:
 3583              		.align	2
 3584              	.L22:
 3585 0400 00000000 		.word	mallocPt
 3586              		.cfi_endproc
 3587              	.LFE4:
 3589              		.align	2
 3590              		.global	sys_init
 3592              	sys_init:
 3593              	.LFB5:
 172:../commonUart/44blib.c **** 
 173:../commonUart/44blib.c **** //--------------------------------INIT---------------------------------//
 174:../commonUart/44blib.c **** void sys_init()// Interrupt & Port
 175:../commonUart/44blib.c **** {
 3594              		.loc 1 175 0
 3595              		.cfi_startproc
 3596              		@ Function supports interworking.
 3597              		@ args = 0, pretend = 0, frame = 0
 3598              		@ frame_needed = 1, uses_anonymous_args = 0
 3599 0404 0DC0A0E1 		mov	ip, sp
 3600              	.LCFI10:
 3601              		.cfi_def_cfa_register 12
 3602 0408 00D82DE9 		stmfd	sp!, {fp, ip, lr, pc}
 3603 040c 04B04CE2 		sub	fp, ip, #4
 3604              		.cfi_offset 14, -8
 3605              		.cfi_offset 13, -12
 3606              		.cfi_offset 11, -16
 3607              	.LCFI11:
 3608              		.cfi_def_cfa 11, 4
 176:../commonUart/44blib.c ****     /* enable interrupt */
 177:../commonUart/44blib.c **** 	rINTMOD=0x0;
 3609              		.loc 1 177 0
 3610 0410 4C309FE5 		ldr	r3, .L25
 3611 0414 0020A0E3 		mov	r2, #0
 3612 0418 002083E5 		str	r2, [r3, #0]
 178:../commonUart/44blib.c **** 	rINTCON=0x1;
 3613              		.loc 1 178 0
 3614 041c 1E36A0E3 		mov	r3, #31457280
 3615 0420 0120A0E3 		mov	r2, #1
 3616 0424 002083E5 		str	r2, [r3, #0]
 179:../commonUart/44blib.c ****     rI_ISPC = 0xffffffff;			/* clear all interrupt pend	*/
 3617              		.loc 1 179 0
 3618 0428 38309FE5 		ldr	r3, .L25+4
 3619 042c 0020E0E3 		mvn	r2, #0
 3620 0430 002083E5 		str	r2, [r3, #0]
 180:../commonUart/44blib.c **** 	rEXTINTPND = 0xf;				// clear EXTINTPND reg
 3621              		.loc 1 180 0
 3622 0434 30309FE5 		ldr	r3, .L25+8
 3623 0438 0F20A0E3 		mov	r2, #15
 3624 043c 002083E5 		str	r2, [r3, #0]
 181:../commonUart/44blib.c **** 	Port_Init();					/* Initial 44B0X's I/O port */	
 3625              		.loc 1 181 0
 3626 0440 FEFFFFEB 		bl	Port_Init
 182:../commonUart/44blib.c **** 	Delay(0);						/* delay time				*/
 3627              		.loc 1 182 0
 3628 0444 0000A0E3 		mov	r0, #0
 3629 0448 FEFFFFEB 		bl	Delay
 183:../commonUart/44blib.c **** 	rINTMSK    = ~(BIT_GLOBAL); // Emascara todas las lineas excepto bit global
 3630              		.loc 1 183 0
 3631 044c 1C309FE5 		ldr	r3, .L25+12
 3632 0450 0123E0E3 		mvn	r2, #67108864
 3633 0454 002083E5 		str	r2, [r3, #0]
 184:../commonUart/44blib.c **** 
 185:../commonUart/44blib.c **** }
 3634              		.loc 1 185 0
 3635 0458 0CD04BE2 		sub	sp, fp, #12
 3636 045c 00689DE8 		ldmfd	sp, {fp, sp, lr}
 3637 0460 1EFF2FE1 		bx	lr
 3638              	.L26:
 3639              		.align	2
 3640              	.L25:
 3641 0464 0800E001 		.word	31457288
 3642 0468 2400E001 		.word	31457316
 3643 046c 5400D201 		.word	30539860
 3644 0470 0C00E001 		.word	31457292
 3645              		.cfi_endproc
 3646              	.LFE5:
 3648              	.Letext0: